; Function Attrs: mustprogress uwtable
define hidden noundef zeroext i1 @_ZNK8facebook6hermes7tracing10SynthTrace28GetNativePropertyNamesRecordeqERKNS2_6RecordE(ptr noundef nonnull align 8 dereferenceable(24) %this, ptr noundef nonnull align 8 dereferenceable(16) %that) unnamed_addr #1 align 2 {
entry:
  %vtable.i = load ptr, ptr %this, align 8
  %vfn.i = getelementptr inbounds i8, ptr %vtable.i, i64 16
  %0 = load ptr, ptr %vfn.i, align 8
  %call.i = tail call noundef i32 %0(ptr noundef nonnull align 8 dereferenceable(16) %this)
  %vtable2.i = load ptr, ptr %that, align 8
  %vfn3.i = getelementptr inbounds i8, ptr %vtable2.i, i64 16
  %1 = load ptr, ptr %vfn3.i, align 8
  %call4.i = tail call noundef i32 %1(ptr noundef nonnull align 8 dereferenceable(16) %that)
  %cmp.i = icmp eq i32 %call.i, %call4.i
  br i1 %cmp.i, label %if.end, label %return

if.end:                                           ; preds = %entry
  %2 = tail call ptr @__dynamic_cast(ptr nonnull %that, ptr nonnull @_ZTIN8facebook6hermes7tracing10SynthTrace6RecordE, ptr nonnull @_ZTIN8facebook6hermes7tracing10SynthTrace28GetNativePropertyNamesRecordE, i64 0) #23
  %3 = icmp eq ptr %2, null
  br i1 %3, label %dynamic_cast.bad_cast, label %dynamic_cast.end

dynamic_cast.bad_cast:                            ; preds = %if.end
  tail call void @__cxa_bad_cast() #26
  unreachable

dynamic_cast.end:                                 ; preds = %if.end
  %hostObjectID_ = getelementptr inbounds i8, ptr %this, i64 16
  %4 = load i64, ptr %hostObjectID_, align 8
  %hostObjectID_2 = getelementptr inbounds i8, ptr %2, i64 16
  %5 = load i64, ptr %hostObjectID_2, align 8
  %cmp = icmp eq i64 %4, %5
  br label %return

return:                                           ; preds = %entry, %dynamic_cast.end
  %retval.0 = phi i1 [ %cmp, %dynamic_cast.end ], [ false, %entry ]
  ret i1 %retval.0
}